; Function Attrs: mustprogress nounwind uwtable
define hidden void @_ZN25G1FullGCResetMetadataTask4workEj(ptr noundef nonnull align 8 dereferenceable(56) %0, i32 noundef %1) unnamed_addr #1 align 2 {
  %3 = alloca %class.TimeInstant, align 8
  %4 = alloca %"class.G1FullGCResetMetadataTask::G1ResetMetadataClosure", align 8
  %5 = alloca %class.TimeInstant, align 8
  %6 = tail call { i64, i64 } @_ZN29CompositeElapsedCounterSource3nowEv() #8
  %7 = extractvalue { i64, i64 } %6, 0
  store i64 %7, ptr %3, align 8
  %8 = getelementptr inbounds i8, ptr %3, i64 8
  %9 = extractvalue { i64, i64 } %6, 1
  store i64 %9, ptr %8, align 8
  %10 = getelementptr inbounds i8, ptr %0, i64 24
  %11 = load ptr, ptr %10, align 8
  %12 = getelementptr inbounds i8, ptr %4, i64 8
  store i8 1, ptr %12, align 8
  store ptr getelementptr inbounds inrange(-16, 8) (i8, ptr @_ZTVN25G1FullGCResetMetadataTask22G1ResetMetadataClosureE, i64 16), ptr %4, align 8
  %13 = getelementptr inbounds i8, ptr %4, i64 16
  %14 = load ptr, ptr @_ZN8Universe14_collectedHeapE, align 8
  store ptr %14, ptr %13, align 8
  %15 = getelementptr inbounds i8, ptr %4, i64 24
  store ptr %11, ptr %15, align 8
  %16 = getelementptr inbounds i8, ptr %0, i64 40
  call void @_ZNK15G1CollectedHeap42heap_region_par_iterate_from_worker_offsetEP19G1HeapRegionClosureP19G1HeapRegionClaimerj(ptr noundef nonnull align 8 dereferenceable(1488) %14, ptr noundef nonnull %4, ptr noundef nonnull %16, i32 noundef %1) #8
  %17 = call { i64, i64 } @_ZN29CompositeElapsedCounterSource3nowEv() #8
  %18 = extractvalue { i64, i64 } %17, 0
  store i64 %18, ptr %5, align 8
  %19 = getelementptr inbounds i8, ptr %5, i64 8
  %20 = extractvalue { i64, i64 } %17, 1
  store i64 %20, ptr %19, align 8
  call void @_ZN12G1FullGCTask8log_taskEPKcjRK11TimeInstantI30CompositeCounterRepresentation29CompositeElapsedCounterSourceES7_(ptr noundef nonnull align 8 dereferenceable(32) %0, ptr noundef nonnull @.str, i32 noundef %1, ptr noundef nonnull align 8 dereferenceable(16) %3, ptr noundef nonnull align 8 dereferenceable(16) %5) #8
  ret void
}